target datalayout = "e-m:e-p270:32:32-p271:32:32-p272:64:64-i64:64-i128:128-f80:128-n8:16:32:64-S128"
target triple = "x86_64-pc-linux-gnu"

%class.BigInteger = type { i32, %class.BigUnsigned }
%class.BigUnsigned = type { %class.NumberlikeArray }
%class.NumberlikeArray = type { i32, i32, ptr }

@_ZTIPKc = external constant ptr
@.str.4 = private unnamed_addr constant [26 x i8] c"BigInteger internal error\00", align 1

; Function Attrs: mustprogress uwtable
define noundef i32 @_ZNK10BigInteger9compareToERKS_(ptr noundef nonnull align 8 dereferenceable(24) %0, ptr noundef nonnull align 8 dereferenceable(24) %1) #0 align 2 {
  %3 = alloca i32, align 4
  %4 = alloca ptr, align 8
  %5 = alloca ptr, align 8
  store ptr %0, ptr %4, align 8, !tbaa !6
  store ptr %1, ptr %5, align 8, !tbaa !6
  %6 = load ptr, ptr %4, align 8
  %7 = getelementptr inbounds nuw %class.BigInteger, ptr %6, i32 0, i32 0
  %8 = load i32, ptr %7, align 8, !tbaa !11
  %9 = load ptr, ptr %5, align 8, !tbaa !6
  %10 = getelementptr inbounds nuw %class.BigInteger, ptr %9, i32 0, i32 0
  %11 = load i32, ptr %10, align 8, !tbaa !11
  %12 = icmp slt i32 %8, %11
  br i1 %12, label %13, label %14

13:                                               ; preds = %2
  store i32 -1, ptr %3, align 4
  br label %39

14:                                               ; preds = %2
  %15 = getelementptr inbounds nuw %class.BigInteger, ptr %6, i32 0, i32 0
  %16 = load i32, ptr %15, align 8, !tbaa !11
  %17 = load ptr, ptr %5, align 8, !tbaa !6
  %18 = getelementptr inbounds nuw %class.BigInteger, ptr %17, i32 0, i32 0
  %19 = load i32, ptr %18, align 8, !tbaa !11
  %20 = icmp sgt i32 %16, %19
  br i1 %20, label %21, label %22

21:                                               ; preds = %14
  store i32 1, ptr %3, align 4
  br label %39

22:                                               ; preds = %14
  %23 = getelementptr inbounds nuw %class.BigInteger, ptr %6, i32 0, i32 0
  %24 = load i32, ptr %23, align 8, !tbaa !11
  switch i32 %24, label %37 [
    i32 0, label %25
    i32 1, label %26
    i32 -1, label %31
  ]

25:                                               ; preds = %22
  store i32 0, ptr %3, align 4
  br label %39

26:                                               ; preds = %22
  %27 = getelementptr inbounds nuw %class.BigInteger, ptr %6, i32 0, i32 1
  %28 = load ptr, ptr %5, align 8, !tbaa !6
  %29 = getelementptr inbounds nuw %class.BigInteger, ptr %28, i32 0, i32 1
  %30 = call noundef i32 @_ZNK11BigUnsigned9compareToERKS_(ptr noundef nonnull align 8 dereferenceable(16) %27, ptr noundef nonnull align 8 dereferenceable(16) %29)
  store i32 %30, ptr %3, align 4
  br label %39

31:                                               ; preds = %22
  %32 = getelementptr inbounds nuw %class.BigInteger, ptr %6, i32 0, i32 1
  %33 = load ptr, ptr %5, align 8, !tbaa !6
  %34 = getelementptr inbounds nuw %class.BigInteger, ptr %33, i32 0, i32 1
  %35 = call noundef i32 @_ZNK11BigUnsigned9compareToERKS_(ptr noundef nonnull align 8 dereferenceable(16) %32, ptr noundef nonnull align 8 dereferenceable(16) %34)
  %36 = sub nsw i32 0, %35
  store i32 %36, ptr %3, align 4
  br label %39

37:                                               ; preds = %22
  %38 = call ptr @__cxa_allocate_exception(i64 8) #9
  store ptr @.str.4, ptr %38, align 16, !tbaa !23
  call void @__cxa_throw(ptr %38, ptr @_ZTIPKc, ptr null) #10
  unreachable

39:                                               ; preds = %31, %26, %25, %21, %13
  %40 = load i32, ptr %3, align 4
  ret i32 %40
}