; Function Attrs: mustprogress uwtable
define noundef i32 @_ZNK10BigInteger9compareToERKS_(ptr noundef nonnull align 8 dereferenceable(24) %0, ptr noundef nonnull align 8 dereferenceable(24) %1) local_unnamed_addr #0 align 2 {
  %3 = load i32, ptr %0, align 8, !tbaa !6
  %4 = load i32, ptr %1, align 8, !tbaa !6
  %5 = icmp slt i32 %3, %4
  br i1 %5, label %20, label %6

6:                                                ; preds = %2
  %7 = icmp sgt i32 %3, %4
  br i1 %7, label %20, label %8

8:                                                ; preds = %6
  switch i32 %3, label %18 [
    i32 0, label %20
    i32 1, label %9
    i32 -1, label %13
  ]

9:                                                ; preds = %8
  %10 = getelementptr inbounds nuw i8, ptr %0, i64 8
  %11 = getelementptr inbounds nuw i8, ptr %1, i64 8
  %12 = tail call noundef i32 @_ZNK11BigUnsigned9compareToERKS_(ptr noundef nonnull align 8 dereferenceable(16) %10, ptr noundef nonnull align 8 dereferenceable(16) %11)
  br label %20

13:                                               ; preds = %8
  %14 = getelementptr inbounds nuw i8, ptr %0, i64 8
  %15 = getelementptr inbounds nuw i8, ptr %1, i64 8
  %16 = tail call noundef i32 @_ZNK11BigUnsigned9compareToERKS_(ptr noundef nonnull align 8 dereferenceable(16) %14, ptr noundef nonnull align 8 dereferenceable(16) %15)
  %17 = sub nsw i32 0, %16
  br label %20

18:                                               ; preds = %8
  %19 = tail call ptr @__cxa_allocate_exception(i64 8) #11
  store ptr @.str.4, ptr %19, align 16, !tbaa !24
  tail call void @__cxa_throw(ptr nonnull %19, ptr nonnull @_ZTIPKc, ptr null) #12
  unreachable

20:                                               ; preds = %8, %6, %2, %13, %9
  %.0 = phi i32 [ %17, %13 ], [ %12, %9 ], [ -1, %2 ], [ 1, %6 ], [ %3, %8 ]
  ret i32 %.0
}